(lp0
(iphrase
Phrase
p1
(dp2
S'timesig'
p3
S'3/4'
p4
sS'type'
p5
S'phrase'
p6
sS't'
p7
(lp8
F0.25
aF0.25
aF0.5
aF0.5
aF0.25
aF0.5
aF0.75
aF1.0
aF0.5
aF0.25
aF0.25
aF0.25
aF0.75
aF0.25
aF0.75
aF0.5
aF0.25
aF0.5
aF0.75
aF0.25
aF0.75
aF0.5
aF0.25
aF0.25
aF0.25
aF0.25
asS'key'
p9
S''
p10
sS'n'
p11
(lp12
I54
aI57
aI-1
aI62
aI66
aI54
aI66
aI60
aI62
aI67
aI66
aI-1
aI63
aI64
aI-1
aI54
aI45
aI60
aI66
aI54
aI-1
aI55
aI59
aI66
aI-1
aI64
asba(iphrase
Phrase
p13
(dp14
g5
g6
sg7
(lp15
F0.25
aF0.25
aI1
aI2
aF0.5
aF0.25
aF0.5
aF0.75
aF1.0
aF0.5
aF0.25
aF0.25
aF0.25
aF0.75
aF0.25
aF0.5
aF0.5
aF0.25
aF0.25
aF0.25
aF0.75
aF0.5
aF0.25
aF0.25
aF0.25
aF0.25
asg9
g10
sg11
(lp16
I54
aI54
aI43
aI-1
aI62
aI66
aI54
aI66
aI59
aI62
aI67
aI66
aI-1
aI63
aI64
aI54
aI48
aI60
aI66
aI54
aI-1
aI55
aI59
aI66
aI45
aI64
asba(iphrase
Phrase
p17
(dp18
g5
g6
sg7
(lp19
F0.25
aF0.25
aF0.5
aF0.5
aF0.25
aF0.5
aF0.75
aF1.0
aF0.5
aF0.25
aF0.25
aF0.25
aF0.75
aI1
aF0.75
aF0.5
aF0.25
aF0.5
aF0.75
aF0.25
aF0.25
aF0.75
aI1
aF0.25
aF0.25
aF0.25
aF0.25
asg9
g10
sg11
(lp20
I54
aI57
aI-1
aI62
aI66
aI54
aI60
aI60
aI62
aI67
aI66
aI45
aI63
aI64
aI45
aI54
aI45
aI60
aI62
aI54
aI43
aI-1
aI55
aI59
aI66
aI-1
aI64
asba(iphrase
Phrase
p21
(dp22
g5
g6
sg7
(lp23
F0.25
aF0.25
aF0.5
aI2
aF0.25
aF0.5
aF0.75
aF1.0
aI2
aF0.25
aF0.25
aF0.25
aI1
aF0.25
aF0.75
aF0.5
aF0.25
aF0.5
aF0.75
aF0.25
aF0.75
aF0.5
aF0.25
aF0.25
aF0.5
aF0.25
aF0.25
asg9
g10
sg11
(lp24
I54
aI57
aI-1
aI62
aI66
aI54
aI66
aI60
aI62
aI67
aI66
aI47
aI63
aI64
aI-1
aI48
aI45
aI60
aI66
aI54
aI-1
aI55
aI59
aI66
aI64
aI47
aI64
asba(iphrase
Phrase
p25
(dp26
g5
g6
sg7
(lp27
F0.25
aF0.25
aF0.5
aI2
aI1
aF0.5
aF0.75
aF1.0
aI2
aF0.25
aF0.25
aF0.25
aI1
aF0.25
aF0.75
aF0.5
aF0.25
aI1
aF0.75
aF0.5
aF0.25
aF0.75
aF0.25
aF0.25
aF0.25
aI1
aF0.5
aF0.25
aF0.25
asg9
g10
sg11
(lp28
I54
aI57
aI1
aI62
aI66
aI54
aI66
aI59
aI62
aI67
aI62
aI47
aI63
aI64
aI-1
aI48
aI45
aI60
aI66
aI74
aI54
aI-1
aI55
aI59
aI62
aI108
aI64
aI47
aI61
asba(iphrase
Phrase
p29
(dp30
g5
g6
sg7
(lp31
F0.25
aF0.25
aI1
aI2
aF0.5
aF0.25
aF0.25
aF0.75
aF1.0
aF0.5
aF0.25
aF0.25
aF0.25
aF0.25
aF0.5
aF0.5
aF0.25
aF0.25
aI1
aF0.75
aF0.5
aF0.25
aF0.25
aF0.25
asg9
g10
sg11
(lp32
I54
aI54
aI43
aI-1
aI62
aI60
aI54
aI66
aI59
aI66
aI67
aI66
aI-1
aI64
aI59
aI48
aI59
aI66
aI54
aI-1
aI55
aI59
aI66
aI45
asba(iphrase
Phrase
p33
(dp34
g5
g6
sg7
(lp35
F0.25
aF0.25
aF0.5
aF0.25
aF0.25
aF0.5
aF0.75
aF0.25
aF1.0
aF0.5
aF0.25
aF0.25
aF0.25
aF0.75
aF0.25
aF0.5
aF0.5
aF0.25
aF0.5
aI1
aF0.25
aF0.25
aF0.25
aF0.25
aF0.25
asg9
g10
sg11
(lp36
I54
aI57
aI-1
aI62
aI66
aI52
aI66
aI57
aI60
aI62
aI69
aI66
aI-1
aI60
aI64
aI-1
aI54
aI45
aI60
aI66
aI54
aI59
aI66
aI-1
aI64
asba(iphrase
Phrase
p37
(dp38
g5
g6
sg7
(lp39
F0.25
aF0.25
aI1
aI2
aF0.5
aF0.25
aF0.5
aF0.75
aI2
aF0.5
aF0.25
aI2
aF0.75
aF0.25
aF0.5
aF0.5
aF0.25
aF0.25
aF0.25
aF0.75
aF0.5
aF0.25
aI2
aF0.25
aI2
asg9
g10
sg11
(lp40
I54
aI54
aI45
aI48
aI62
aI66
aI54
aI66
aI59
aI67
aI66
aI-1
aI63
aI64
aI54
aI48
aI60
aI66
aI54
aI-1
aI55
aI59
aI66
aI47
aI64
asba(iphrase
Phrase
p41
(dp42
g5
g6
sg7
(lp43
F0.25
aF0.25
aF0.5
aI2
aI1
aF0.75
aF1.0
aI2
aF0.25
aF0.25
aF0.25
aI1
aF0.25
aF0.75
aI1
aF0.25
aI1
aI2
aF0.5
aF0.25
aF0.75
aI1
aF0.25
aF0.25
aI1
aI1
aF0.5
aF0.5
aF0.25
asg9
g10
sg11
(lp44
I54
aI57
aI1
aI62
aI66
aI66
aI59
aI62
aI67
aI62
aI47
aI63
aI64
aI-1
aI48
aI45
aI60
aI66
aI74
aI54
aI-1
aI55
aI59
aI62
aI110
aI108
aI64
aI47
aI61
asba(iphrase
Phrase
p45
(dp46
g5
g6
sg7
(lp47
F0.25
aF0.25
aF0.5
aF0.25
aF0.5
aF0.5
aF0.75
aF0.25
aF0.5
aF0.5
aF0.25
aI1
aF0.25
aF0.25
aF0.75
aF0.25
aF0.5
aF0.5
aF0.25
aF0.5
aF0.5
aF0.25
aF0.25
aF0.25
aF0.25
aF0.25
asg9
g10
sg11
(lp48
I54
aI57
aI-1
aI62
aI66
aI52
aI66
aI57
aI60
aI62
aI69
aI102
aI66
aI-1
aI60
aI60
aI-1
aI54
aI45
aI60
aI66
aI54
aI59
aI66
aI-1
aI68
asba(iphrase
Phrase
p49
(dp50
g5
g6
sg7
(lp51
F0.25
aF0.25
aF0.5
aI2
aI2
aI1
aF0.75
aF0.5
aI2
aF0.25
aF0.25
aF0.25
aI1
aF0.25
aF0.5
aI1
aF0.25
aI1
aI1
aF0.5
aF0.25
aF0.25
aI1
aF0.25
aF0.25
aI1
aI1
aF0.5
aF0.5
aF0.25
asg9
g10
sg11
(lp52
I54
aI57
aI1
aI98
aI62
aI66
aI66
aI59
aI62
aI67
aI62
aI43
aI63
aI64
aI-1
aI48
aI45
aI60
aI66
aI74
aI54
aI-1
aI55
aI59
aI62
aI110
aI108
aI64
aI47
aI61
asba(iphrase
Phrase
p53
(dp54
g5
g6
sg7
(lp55
F0.25
aF0.25
aF0.5
aI1
aI1
aF0.75
aF1.0
aI2
aF0.25
aF0.25
aF0.25
aF0.75
aI1
aF0.5
aI1
aF0.5
aF0.5
aF0.25
aF0.75
aI1
aF0.25
aF0.25
aI1
aI1
aF0.5
aF0.5
aF0.25
asg9
g10
sg11
(lp56
I54
aI57
aI1
aI62
aI66
aI66
aI59
aI67
aI62
aI47
aI63
aI-1
aI48
aI45
aI60
aI66
aI74
aI52
aI-1
aI55
aI59
aI62
aI110
aI108
aI62
aI47
aI61
asba(iphrase
Phrase
p57
(dp58
g5
g6
sg7
(lp59
F0.25
aF0.25
aF0.5
aF0.25
aF0.25
aF0.5
aF0.5
aF0.25
aF1.0
aF0.5
aF0.5
aF0.25
aF0.75
aF0.25
aI2
aF0.5
aF0.25
aF0.25
aI1
aF0.25
aF0.25
aF0.25
aF0.25
asg9
g10
sg11
(lp60
I54
aI57
aI-1
aI62
aI66
aI66
aI66
aI57
aI60
aI62
aI69
aI-1
aI60
aI64
aI47
aI54
aI45
aI60
aI66
aI54
aI66
aI-1
aI64
asba(iphrase
Phrase
p61
(dp62
g5
g6
sg7
(lp63
F0.25
aF0.25
aF0.5
aI1
aI2
aI1
aF0.75
aF0.5
aI2
aF0.25
aF0.25
aF0.5
aI1
aF0.25
aF0.5
aI1
aF0.25
aI2
aI1
aF0.5
aF0.25
aF0.25
aI1
aF0.25
aI1
aI2
aI1
aF0.5
aF0.5
aF0.25
asg9
g10
sg11
(lp64
I54
aI57
aI1
aI98
aI62
aI66
aI64
aI59
aI62
aI67
aI62
aI43
aI63
aI62
aI-1
aI48
aI45
aI60
aI66
aI74
aI54
aI-1
aI55
aI59
aI62
aI110
aI108
aI64
aI47
aI61
asba(iphrase
Phrase
p65
(dp66
g5
g6
sg7
(lp67
F0.25
aF0.25
aF0.5
aI1
aI2
aI1
aF0.75
aF0.5
aI2
aF0.25
aF0.25
aF0.5
aI2
aF0.25
aF0.5
aI1
aF0.25
aF0.25
aF0.25
aI1
aF0.5
aF0.25
aF0.25
aI1
aF0.25
aF0.25
aI2
aI1
aF0.5
aF0.5
aF0.5
asg9
g10
sg11
(lp68
I48
aI57
aI1
aI98
aI62
aI66
aI64
aI59
aI62
aI67
aI62
aI43
aI63
aI62
aI-1
aI48
aI86
aI45
aI60
aI61
aI73
aI54
aI-1
aI55
aI59
aI62
aI110
aI108
aI64
aI47
aI95
asba(iphrase
Phrase
p69
(dp70
g5
g6
sg7
(lp71
F0.25
aF0.25
aF0.5
aF0.25
aF0.5
aF0.5
aF0.75
aF0.25
aF0.5
aF0.5
aI2
aF0.25
aI1
aF0.25
aF0.25
aF0.75
aF0.25
aF0.25
aF0.5
aF0.5
aF0.25
aF0.25
aF0.5
aF0.5
aF0.25
aF0.25
aF0.5
aF0.25
aF0.25
asg9
g10
sg11
(lp72
I52
aI57
aI-1
aI62
aI66
aI52
aI66
aI57
aI60
aI62
aI105
aI69
aI100
aI66
aI-1
aI60
aI60
aI-1
aI54
aI71
aI45
aI60
aI64
aI66
aI54
aI59
aI66
aI-1
aI67
asba(iphrase
Phrase
p73
(dp74
g5
g6
sg7
(lp75
F0.5
aF0.25
aI1
aI2
aF0.25
aI2
aF0.5
aF0.75
aI2
aI2
aF0.25
aI2
aF0.75
aF0.25
aF0.5
aF0.5
aI1
aF0.5
aF0.25
aI1
aF0.75
aF0.5
aF0.25
aI2
aF0.25
aF0.25
asg9
g10
sg11
(lp76
I54
aI54
aI45
aI48
aI62
aI66
aI54
aI66
aI59
aI67
aI66
aI-1
aI63
aI59
aI54
aI48
aI60
aI93
aI66
aI54
aI-1
aI55
aI59
aI66
aI47
aI64
asba(iphrase
Phrase
p77
(dp78
g5
g6
sg7
(lp79
F0.25
aF0.25
aF0.5
aI2
aI2
aF0.25
aI1
aF0.75
aF0.5
aI1
aI2
aF0.25
aF0.25
aF0.25
aI1
aF0.25
aF0.5
aF0.5
aI1
aF0.25
aI1
aI1
aF0.5
aI2
aF0.25
aI1
aF0.25
aF0.25
aF0.5
aI1
aF0.5
aI1
aF0.25
asg9
g10
sg11
(lp80
I54
aI57
aI1
aI98
aI62
aI85
aI64
aI66
aI59
aI86
aI62
aI67
aI62
aI43
aI63
aI64
aI-1
aI50
aI48
aI45
aI60
aI66
aI74
aI54
aI-1
aI55
aI59
aI62
aI110
aI108
aI64
aI47
aI61
asba(iphrase
Phrase
p81
(dp82
g5
g6
sg7
(lp83
F0.25
aF0.25
aF0.5
aF0.25
aF0.25
aF0.5
aF0.5
aF1.0
aF0.5
aF0.5
aI2
aF0.75
aF0.25
aI2
aI1
aF0.25
aF0.25
aI1
aF0.25
aF0.25
aF0.25
aF0.25
asg9
g10
sg11
(lp84
I54
aI57
aI-1
aI62
aI62
aI66
aI57
aI60
aI62
aI69
aI-1
aI60
aI61
aI47
aI54
aI45
aI57
aI66
aI54
aI60
aI-1
aI60
asba(iphrase
Phrase
p85
(dp86
g5
g6
sg7
(lp87
F0.25
aF0.25
aF0.5
aI2
aI1
aF0.75
aF1.0
aI2
aF0.25
aF0.25
aF0.25
aI1
aF0.25
aF0.75
aF0.25
aI1
aI2
aF0.5
aF0.5
aF0.75
aI2
aF0.25
aF0.25
aI1
aI1
aF0.5
aF0.5
aF0.25
asg9
g10
sg11
(lp88
I54
aI57
aI1
aI62
aI62
aI61
aI59
aI62
aI67
aI62
aI47
aI63
aI64
aI-1
aI46
aI60
aI66
aI74
aI54
aI-1
aI55
aI54
aI62
aI103
aI108
aI64
aI47
aI61
asba(iphrase
Phrase
p89
(dp90
g5
g6
sg7
(lp91
F0.25
aF0.5
aF0.5
aF0.5
aF0.25
aF0.5
aF0.75
aF1.0
aF0.5
aF0.25
aF0.25
aF0.25
aF0.75
aF0.75
aF0.5
aF0.25
aF0.5
aF0.75
aI1
aF0.25
aF0.75
aF0.5
aF0.25
aF0.25
aF0.25
aF0.25
asg9
g10
sg11
(lp92
I54
aI57
aI-1
aI62
aI66
aI50
aI66
aI60
aI62
aI67
aI66
aI-1
aI63
aI-1
aI54
aI45
aI60
aI66
aI108
aI54
aI45
aI55
aI59
aI60
aI-1
aI64
asba(iphrase
Phrase
p93
(dp94
g5
g6
sg7
(lp95
F0.25
aF0.25
aF0.25
aI2
aI2
aI1
aI1
aF0.75
aF0.25
aI2
aF0.25
aF0.25
aF0.25
aI1
aF0.25
aF0.5
aF0.5
aF0.25
aI1
aI1
aF0.5
aF0.25
aI1
aF0.25
aF0.25
aI1
aI1
aF0.5
aF0.5
aF0.25
asg9
g10
sg11
(lp96
I52
aI57
aI1
aI98
aI62
aI66
aI78
aI66
aI59
aI62
aI67
aI62
aI43
aI63
aI64
aI-1
aI48
aI45
aI60
aI66
aI74
aI43
aI55
aI55
aI62
aI107
aI108
aI64
aI47
aI61
asba(iphrase
Phrase
p97
(dp98
g5
g6
sg7
(lp99
I1
aF0.25
aF0.5
aI2
aI1
aF0.75
aF0.25
aI2
aF0.25
aF0.25
aF0.25
aI1
aF0.25
aF0.75
aI1
aI1
aI2
aF0.5
aI1
aI1
aF0.75
aI1
aF0.25
aF0.5
aI1
aF0.5
aI2
aF0.25
asg9
g10
sg11
(lp100
I54
aI57
aI42
aI62
aI66
aI66
aI59
aI62
aI67
aI62
aI47
aI63
aI64
aI-1
aI48
aI60
aI66
aI74
aI54
aI38
aI-1
aI55
aI59
aI62
aI110
aI64
aI47
aI61
asba(iphrase
Phrase
p101
(dp102
g5
g6
sg7
(lp103
I2
aF0.5
aF0.5
aF0.5
aI1
aF0.5
aF1.0
aI2
aF0.25
aF0.25
aF0.25
aF0.5
aF0.75
aF0.5
aF0.25
aF0.5
aF0.75
aI1
aF0.25
aI1
aF0.5
aF0.25
aF0.25
aF0.25
aF0.25
asg9
g10
sg11
(lp104
I54
aI52
aI-1
aI62
aI60
aI50
aI60
aI62
aI67
aI66
aI-1
aI60
aI-1
aI54
aI45
aI60
aI66
aI108
aI54
aI45
aI55
aI59
aI60
aI-1
aI64
asba(iphrase
Phrase
p105
(dp106
g5
g6
sg7
(lp107
F0.25
aF0.25
aF0.5
aI2
aI2
aI1
aF0.5
aI1
aF0.75
aF0.5
aI1
aI2
aF0.25
aF0.25
aF0.25
aF0.25
aI1
aF0.25
aF0.5
aI1
aI1
aF0.25
aI1
aI1
aF0.5
aI2
aF0.25
aF0.25
aF0.25
aF0.5
aF0.25
aF0.5
aI1
aF0.25
asg9
g10
sg11
(lp108
I54
aI57
aI1
aI98
aI62
aI85
aI88
aI64
aI66
aI59
aI86
aI62
aI62
aI64
aI57
aI43
aI63
aI64
aI-1
aI50
aI48
aI45
aI60
aI66
aI74
aI54
aI-1
aI59
aI62
aI110
aI108
aI62
aI47
aI61
asba(iphrase
Phrase
p109
(dp110
g5
g6
sg7
(lp111
I2
aF0.5
aI1
aF0.5
aF0.25
aF0.5
aF1.0
aI1
aI2
aF0.25
aF0.25
aF0.25
aF0.5
aF0.75
aF0.25
aF0.25
aF0.5
aF0.75
aI1
aF0.5
aI1
aI1
aF0.25
aF0.25
aF0.25
aF0.25
asg9
g10
sg11
(lp112
I54
aI55
aI-1
aI62
aI60
aI50
aI60
aI57
aI62
aI67
aI66
aI0
aI60
aI-1
aI54
aI45
aI60
aI66
aI108
aI54
aI45
aI55
aI59
aI60
aI47
aI64
asba(iphrase
Phrase
p113
(dp114
g5
g6
sg7
(lp115
I2
aI1
aI1
aF0.5
aF0.25
aF0.5
aF1.0
aI1
aI1
aI2
aF0.25
aF0.5
aF0.25
aF0.5
aF0.75
aF0.25
aF0.25
aF0.5
aI2
aI1
aF0.5
aI1
aF0.25
aF0.25
aF0.25
aF0.25
aF0.25
asg9
g10
sg11
(lp116
I54
aI55
aI-1
aI62
aI58
aI50
aI60
aI66
aI57
aI59
aI67
aI89
aI66
aI55
aI-1
aI54
aI45
aI60
aI66
aI108
aI54
aI45
aI55
aI59
aI60
aI47
aI64
asba(iphrase
Phrase
p117
(dp118
g5
g6
sg7
(lp119
F0.25
aF0.25
aF0.5
aI2
aI2
aF0.5
aI1
aF0.75
aF0.5
aI1
aI2
aF0.25
aF0.25
aF0.25
aF0.25
aI2
aF0.25
aF0.5
aI1
aI1
aF0.25
aI1
aI1
aF0.5
aI2
aF0.25
aF0.25
aF0.25
aF0.5
aF0.25
aF0.5
aI1
aF0.25
asg9
g10
sg11
(lp120
I54
aI57
aI1
aI98
aI62
aI85
aI64
aI66
aI59
aI82
aI62
aI57
aI64
aI57
aI43
aI59
aI64
aI-1
aI50
aI48
aI45
aI60
aI66
aI74
aI54
aI-1
aI59
aI62
aI111
aI103
aI62
aI47
aI61
asba(iphrase
Phrase
p121
(dp122
g5
g6
sg7
(lp123
F0.25
aF0.5
aF0.5
aI1
aF0.25
aF0.5
aF1.0
aF0.5
aF0.25
aI1
aF0.75
aI1
aF0.75
aF0.5
aF0.25
aF0.5
aF0.75
aF0.25
aF0.25
aI2
aI1
aF0.25
aF0.25
aF0.25
aF0.25
aF0.25
asg9
g10
sg11
(lp124
I54
aI57
aI-1
aI62
aI66
aI54
aI60
aI62
aI67
aI45
aI63
aI64
aI45
aI54
aI45
aI55
aI62
aI54
aI43
aI-1
aI108
aI55
aI59
aI66
aI-1
aI64
asba(iphrase
Phrase
p125
(dp126
g5
g6
sg7
(lp127
F0.25
aF0.25
aF0.5
aF0.25
aF0.25
aF0.5
aF0.5
aF1.0
aF0.5
aF0.5
aI2
aF0.75
aF0.25
aI2
aI1
aF0.25
aF0.25
aF0.5
aF0.25
aF0.25
aI1
aF0.25
asg9
g10
sg11
(lp128
I54
aI54
aI48
aI62
aI62
aI66
aI57
aI60
aI62
aI69
aI-1
aI60
aI61
aI47
aI54
aI45
aI57
aI66
aI52
aI59
aI-1
aI60
asba(iphrase
Phrase
p129
(dp130
g5
g6
sg7
(lp131
F0.5
aF0.5
aF0.5
aF0.5
aI1
aF0.25
aF1.0
aI2
aF0.25
aI1
aF0.25
aF0.5
aF0.75
aF0.5
aF0.25
aF0.5
aI1
aF0.25
aI1
aF0.5
aF0.25
aF0.25
aF0.5
aF0.25
asg9
g10
sg11
(lp132
I54
aI52
aI-1
aI62
aI60
aI50
aI60
aI59
aI64
aI66
aI47
aI60
aI-1
aI54
aI45
aI66
aI108
aI54
aI45
aI55
aI59
aI60
aI-1
aI64
asba(iphrase
Phrase
p133
(dp134
g5
g6
sg7
(lp135
F0.25
aI2
aF0.25
aI1
aI2
aF0.5
aF0.25
aF0.5
aF0.75
aF1.0
aF0.5
aF0.25
aF0.25
aF0.25
aF0.75
aF0.25
aF0.5
aF0.5
aF0.25
aI1
aF0.25
aF0.75
aF0.5
aF0.25
aF0.25
aF0.5
aF0.25
aF0.5
asg9
g10
sg11
(lp136
I59
aI86
aI54
aI43
aI-1
aI61
aI66
aI53
aI66
aI59
aI62
aI67
aI66
aI-1
aI63
aI64
aI52
aI48
aI60
aI66
aI54
aI-1
aI55
aI59
aI66
aI98
aI45
aI64
asba(iphrase
Phrase
p137
(dp138
g5
g6
sg7
(lp139
F0.25
aF0.25
aF0.5
aF0.5
aF0.5
aF0.25
aF0.5
aF0.25
aI1
aF0.5
aF0.25
aF0.25
aF0.75
aI1
aF0.75
aF0.5
aF0.25
aF0.5
aF0.5
aF0.75
aF0.25
aF0.25
aF0.75
aI1
aF0.25
aF0.25
aI2
aF0.25
asg9
g10
sg11
(lp140
I54
aI57
aI-1
aI62
aI110
aI66
aI54
aI60
aI60
aI59
aI67
aI45
aI63
aI64
aI45
aI52
aI45
aI60
aI60
aI62
aI54
aI43
aI-1
aI55
aI59
aI66
aI-1
aI64
asba(iphrase
Phrase
p141
(dp142
g5
g6
sg7
(lp143
F0.5
aF0.25
aF0.5
aI2
aI1
aF0.5
aF0.25
aF1.0
aI2
aF0.25
aF0.25
aF0.25
aI1
aI1
aF0.75
aI2
aF0.25
aI1
aF0.75
aF0.5
aF0.25
aF0.25
aF0.5
aF0.25
aF0.25
aI1
aF0.5
aF0.25
aF0.25
asg9
g10
sg11
(lp144
I52
aI57
aI1
aI62
aI66
aI54
aI66
aI59
aI62
aI67
aI62
aI47
aI63
aI62
aI-1
aI48
aI45
aI60
aI66
aI74
aI54
aI-1
aI55
aI59
aI62
aI108
aI64
aI47
aI61
asba(iphrase
Phrase
p145
(dp146
g5
g6
sg7
(lp147
F0.25
aF0.25
aI1
aI2
aF0.5
aF0.25
aF0.5
aF0.75
aI2
aF0.5
aF0.25
aI2
aF0.75
aI1
aF0.5
aF0.5
aF0.25
aF0.25
aF0.25
aF0.75
aF0.25
aF0.25
aI2
aF0.25
aF0.5
asg9
g10
sg11
(lp148
I48
aI54
aI45
aI48
aI62
aI66
aI54
aI62
aI59
aI67
aI66
aI-1
aI63
aI64
aI54
aI48
aI60
aI66
aI45
aI-1
aI55
aI64
aI66
aI47
aI64
asba(iphrase
Phrase
p149
(dp150
g5
g6
sg7
(lp151
F0.5
aF0.25
aF0.5
aI2
aI1
aF0.25
aI1
aF0.75
aI1
aI2
aF0.25
aF0.25
aF0.25
aI1
aF0.25
aF0.5
aF0.5
aI1
aF0.25
aI1
aI1
aF0.5
aI2
aF0.25
aI1
aF0.25
aF0.25
aF0.5
aF0.5
aF0.5
aI1
aI2
aF0.25
asg9
g10
sg11
(lp152
I54
aI57
aI1
aI98
aI62
aI85
aI64
aI66
aI86
aI62
aI67
aI62
aI44
aI63
aI64
aI-1
aI50
aI48
aI45
aI60
aI66
aI74
aI54
aI-1
aI55
aI59
aI62
aI110
aI108
aI64
aI47
aI61
aI59
asba(iphrase
Phrase
p153
(dp154
g5
g6
sg7
(lp155
F0.5
aF0.25
aF0.5
aI1
aI1
aI2
aF1.0
aI2
aF0.25
aF0.25
aF0.25
aI1
aF0.25
aF0.75
aI1
aI1
aI1
aF0.5
aF0.5
aF0.5
aF0.25
aF0.75
aI1
aF0.25
aI1
aI1
aF0.5
aF0.5
aF0.25
asg9
g10
sg11
(lp156
I54
aI57
aI1
aI62
aI66
aI62
aI59
aI62
aI67
aI62
aI47
aI63
aI64
aI-1
aI48
aI45
aI60
aI78
aI66
aI74
aI54
aI40
aI55
aI62
aI110
aI108
aI64
aI47
aI61
asba(iphrase
Phrase
p157
(dp158
g5
g6
sg7
(lp159
F0.25
aF0.25
aF0.25
aI2
aF0.5
aF0.25
aF0.5
aI2
aF0.5
aF0.25
aI2
aF0.75
aI1
aF0.5
aF0.5
aF0.25
aF0.25
aF0.25
aF0.75
aF0.25
aF0.25
aF0.25
aI2
aF0.25
aF0.5
asg9
g10
sg11
(lp160
I48
aI54
aI45
aI45
aI62
aI66
aI54
aI59
aI67
aI66
aI45
aI63
aI64
aI54
aI48
aI60
aI66
aI45
aI-1
aI55
aI64
aI64
aI66
aI47
aI64
asba(iphrase
Phrase
p161
(dp162
g5
g6
sg7
(lp163
F0.25
aF0.25
aF0.25
aF0.25
aF0.5
aF0.25
aF1.0
aF0.5
aF0.5
aI2
aF0.75
aF0.25
aI2
aI1
aF0.25
aF0.25
aF0.5
aF0.25
aI1
aI2
aF0.25
asg9
g10
sg11
(lp164
I54
aI54
aI62
aI62
aI66
aI55
aI60
aI102
aI69
aI-1
aI60
aI61
aI47
aI54
aI47
aI57
aI66
aI52
aI59
aI-1
aI57
asba(iphrase
Phrase
p165
(dp166
g5
g6
sg7
(lp167
F0.25
aF0.25
aF0.5
aF0.5
aF0.5
aF0.5
aF0.25
aF0.25
aF0.5
aF0.25
aF0.25
aF0.25
aF0.25
aF0.75
aF0.25
aF0.5
aF0.5
aF0.25
aF0.5
aF0.5
aF0.25
aF0.25
aF0.25
aF0.25
asg9
g10
sg11
(lp168
I54
aI57
aI-1
aI62
aI66
aI52
aI64
aI57
aI62
aI69
aI102
aI66
aI-1
aI60
aI55
aI-1
aI54
aI45
aI60
aI60
aI50
aI59
aI66
aI-1
asba(iphrase
Phrase
p169
(dp170
g5
g6
sg7
(lp171
F0.25
aF0.25
aF0.5
aI2
aI2
aF0.5
aI1
aF0.75
aI1
aI1
aI2
aF0.25
aF0.25
aF0.25
aF0.25
aI2
aF0.25
aF0.5
aI1
aI1
aF0.25
aI1
aF0.5
aI2
aF0.25
aF0.25
aF0.25
aF0.5
aI1
aF0.5
aI1
asg9
g10
sg11
(lp172
I54
aI57
aI1
aI98
aI62
aI85
aI64
aI66
aI59
aI82
aI62
aI57
aI59
aI57
aI43
aI59
aI64
aI-1
aI50
aI48
aI42
aI60
aI74
aI54
aI-1
aI59
aI62
aI111
aI103
aI62
aI47
asba(iphrase
Phrase
p173
(dp174
g5
g6
sg7
(lp175
F0.25
aF0.25
aI1
aI2
aF0.5
aF0.25
aF0.5
aF0.75
aI2
aF0.25
aF0.25
aF0.25
aF0.25
aF0.75
aF0.25
aI2
aI1
aF0.5
aF0.25
aI1
aF0.25
aF0.75
aF0.25
aF0.25
aF0.5
aF0.25
aF0.5
asg9
g10
sg11
(lp176
I59
aI54
aI43
aI-1
aI60
aI66
aI53
aI66
aI59
aI62
aI67
aI66
aI-1
aI63
aI63
aI48
aI112
aI48
aI60
aI66
aI54
aI-1
aI59
aI66
aI98
aI45
aI64
asba(iphrase
Phrase
p177
(dp178
g5
g6
sg7
(lp179
F0.25
aF0.25
aF0.5
aF0.25
aF0.25
aF0.5
aF0.5
aF0.25
aI2
aF0.5
aF0.5
aF0.5
aF0.25
aF0.75
aF0.25
aI2
aF0.5
aF0.25
aF0.25
aI1
aF0.5
aF0.25
aF0.25
asg9
g10
sg11
(lp180
I54
aI52
aI47
aI62
aI66
aI66
aI66
aI57
aI60
aI61
aI62
aI69
aI-1
aI60
aI64
aI47
aI54
aI47
aI60
aI66
aI54
aI-1
aI64
asba(iphrase
Phrase
p181
(dp182
g5
g6
sg7
(lp183
F0.25
aF0.25
aF0.5
aI2
aF0.5
aF0.25
aF0.5
aF0.25
aI1
aF0.5
aF0.25
aF0.25
aF0.25
aI1
aF0.25
aF0.5
aF0.25
aF0.5
aF0.5
aF0.75
aF0.25
aF0.25
aF0.75
aI1
aF0.25
aF0.25
aI2
aF0.25
asg9
g10
sg11
(lp184
I54
aI57
aI45
aI62
aI110
aI66
aI54
aI60
aI60
aI57
aI67
aI45
aI63
aI64
aI45
aI52
aI45
aI60
aI60
aI62
aI54
aI43
aI45
aI55
aI59
aI66
aI-1
aI58
asba(iphrase
Phrase
p185
(dp186
g5
g6
sg7
(lp187
I2
aF0.25
aF0.5
aF0.25
aF0.25
aF0.5
aF0.5
aF1.0
aF0.5
aF0.5
aF0.5
aI2
aF0.75
aF0.25
aI2
aI1
aF0.25
aF0.5
aF0.5
aI1
aI1
aF0.25
asg9
g10
sg11
(lp188
I52
aI48
aI48
aI62
aI62
aI66
aI57
aI60
aI79
aI62
aI69
aI-1
aI60
aI61
aI47
aI54
aI45
aI66
aI52
aI59
aI-1
aI60
asba(iphrase
Phrase
p189
(dp190
g5
g6
sg7
(lp191
F0.25
aF0.25
aF0.5
aF0.5
aF0.25
aF0.5
aF1.0
aF0.5
aF0.25
aI1
aF0.75
aI1
aF0.75
aI2
aF0.5
aF0.25
aF0.5
aF0.75
aF0.25
aF0.25
aI2
aF0.5
aF0.5
aF0.25
aF0.25
aF0.25
aF0.25
aF0.25
asg9
g10
sg11
(lp192
I54
aI57
aI-1
aI63
aI62
aI54
aI60
aI62
aI67
aI45
aI63
aI64
aI45
aI110
aI54
aI45
aI55
aI62
aI54
aI43
aI-1
aI107
aI108
aI55
aI59
aI66
aI-1
aI59
asba(iphrase
Phrase
p193
(dp194
g5
g6
sg7
(lp195
F0.5
aF0.25
aI1
aF0.25
aF0.5
aI2
aF0.5
aI1
aI2
aI2
aF0.25
aI1
aF0.5
aF0.75
aF0.25
aF0.5
aF0.25
aI1
aF0.5
aF0.25
aI1
aF0.75
aF0.5
aF0.25
aI2
aF0.25
aF0.25
asg9
g10
sg11
(lp196
I57
aI50
aI45
aI48
aI62
aI66
aI54
aI66
aI59
aI67
aI66
aI43
aI-1
aI63
aI59
aI54
aI48
aI60
aI93
aI66
aI54
aI-1
aI55
aI59
aI66
aI47
aI64
asba(iphrase
Phrase
p197
(dp198
g5
g6
sg7
(lp199
F0.5
aI1
aF0.5
aI2
aI1
aF0.5
aF0.25
aF1.0
aI2
aF0.25
aI2
aF0.25
aI1
aI1
aF0.75
aI2
aF0.25
aF0.5
aF0.75
aF0.5
aF0.25
aF0.25
aF0.25
aF0.25
aI1
aF0.5
aF0.25
aF0.25
asg9
g10
sg11
(lp200
I52
aI57
aI1
aI62
aI66
aI54
aI66
aI57
aI62
aI67
aI62
aI47
aI63
aI62
aI43
aI48
aI45
aI60
aI66
aI74
aI-1
aI55
aI59
aI62
aI107
aI64
aI47
aI61
asba(iphrase
Phrase
p201
(dp202
g5
g6
sg7
(lp203
F0.25
aF0.25
aI1
aI2
aF0.5
aF0.25
aF0.5
aF0.75
aI2
aF0.5
aF0.25
aI2
aF0.25
aF0.5
aF0.75
aF0.25
aF0.5
aF0.5
aF0.25
aF0.25
aF0.25
aF0.75
aF0.5
aF0.25
aI2
aI2
aF0.25
asg9
g10
sg11
(lp204
I54
aI54
aI45
aI48
aI62
aI66
aI54
aI66
aI59
aI64
aI66
aI-1
aI100
aI105
aI63
aI64
aI54
aI45
aI60
aI64
aI54
aI-1
aI55
aI55
aI64
aI47
aI59
asba(iphrase
Phrase
p205
(dp206
g5
g6
sg7
(lp207
F0.25
aF0.25
aF0.5
aF0.5
aF0.25
aI1
aI1
aF0.5
aF0.25
aF0.25
aF0.25
aF0.75
aF0.25
aF0.75
aF0.5
aF0.25
aF0.25
aF0.75
aF0.25
aF0.75
aF0.5
aF0.25
aI1
aF0.25
aF0.25
asg9
g10
sg11
(lp208
I54
aI57
aI-1
aI62
aI61
aI66
aI60
aI62
aI64
aI66
aI-1
aI63
aI64
aI-1
aI54
aI45
aI60
aI66
aI54
aI-1
aI55
aI59
aI66
aI-1
aI64
asba(iphrase
Phrase
p209
(dp210
g5
g6
sg7
(lp211
F0.25
aF0.25
aF0.5
aF0.25
aI1
aF0.5
aF0.5
aI2
aF1.0
aF0.5
aF0.5
aI2
aF0.75
aI2
aI2
aI1
aF0.25
aF0.25
aI1
aF0.5
aF0.25
aF0.25
aF0.25
aF0.25
asg9
g10
sg11
(lp212
I54
aI57
aI-1
aI62
aI65
aI66
aI57
aI107
aI60
aI72
aI69
aI-1
aI60
aI61
aI47
aI48
aI45
aI57
aI66
aI95
aI54
aI60
aI-1
aI60
asba(iphrase
Phrase
p213
(dp214
g5
g6
sg7
(lp215
F0.5
aF0.5
aF0.25
aF0.5
aI1
aF0.25
aF0.25
aI2
aF0.25
aI1
aF0.25
aF0.5
aF0.5
aF0.5
aF0.25
aF0.5
aI1
aI1
aF0.25
aF0.25
aF0.5
aF0.25
asg9
g10
sg11
(lp216
I54
aI52
aI45
aI62
aI60
aI47
aI57
aI59
aI64
aI66
aI47
aI60
aI-1
aI54
aI45
aI66
aI108
aI45
aI57
aI60
aI-1
aI64
asba(iphrase
Phrase
p217
(dp218
g5
g6
sg7
(lp219
F0.25
aF0.5
aF0.5
aI2
aI2
aI1
aF0.75
aF0.5
aI2
aF0.25
aF0.25
aF0.25
aI1
aF0.25
aF0.5
aI1
aF0.25
aI1
aI1
aF0.5
aF0.25
aF0.5
aI1
aF0.25
aF0.25
aI1
aI1
aF0.5
aF0.5
aF0.5
asg9
g10
sg11
(lp220
I54
aI57
aI1
aI98
aI62
aI66
aI66
aI59
aI62
aI67
aI62
aI43
aI55
aI64
aI-1
aI48
aI45
aI60
aI66
aI74
aI54
aI-1
aI56
aI59
aI62
aI110
aI108
aI64
aI47
aI57
asba(iphrase
Phrase
p221
(dp222
g5
g6
sg7
(lp223
F0.25
aF0.25
aF0.5
aF0.25
aI1
aF0.5
aF0.5
aF0.25
aF1.0
aF0.5
aF0.5
aI2
aI2
aI2
aI1
aI1
aF0.25
aF0.25
aI1
aF0.5
aF0.25
aF0.25
aF0.25
aI1
aF0.25
asg9
g10
sg11
(lp224
I54
aI57
aI-1
aI62
aI60
aI66
aI57
aI74
aI60
aI72
aI69
aI-1
aI60
aI61
aI47
aI48
aI45
aI57
aI66
aI95
aI54
aI55
aI-1
aI84
aI60
asba(iphrase
Phrase
p225
(dp226
g5
g6
sg7
(lp227
F0.25
aF0.25
aF0.5
aF0.5
aF0.5
aF0.5
aF0.25
aF0.5
aI1
aI1
aI1
aF0.5
aF0.25
aF0.25
aF0.75
aI1
aF0.75
aF0.5
aF0.25
aF0.5
aF0.75
aF0.25
aF0.25
aF0.75
aI1
aF0.25
aF0.25
aF0.5
aF0.25
asg9
g10
sg11
(lp228
I54
aI54
aI4
aI-1
aI62
aI110
aI64
aI48
aI60
aI60
aI95
aI57
aI67
aI45
aI63
aI64
aI45
aI52
aI45
aI60
aI62
aI54
aI43
aI-1
aI55
aI59
aI66
aI-1
aI64
asba(iphrase
Phrase
p229
(dp230
g5
g6
sg7
(lp231
F0.5
aF0.25
aI2
aI2
aI1
aF0.5
aF0.25
aF1.0
aF0.5
aF0.25
aI1
aI1
aF0.75
aI2
aF0.25
aI1
aF0.75
aF0.5
aF0.25
aF0.25
aF0.5
aF0.25
aI1
aI1
aF0.25
aF0.5
aF0.25
aF0.25
asg9
g10
sg11
(lp232
I52
aI57
aI1
aI62
aI66
aI54
aI66
aI59
aI62
aI67
aI63
aI62
aI4
aI48
aI45
aI60
aI66
aI74
aI54
aI-1
aI55
aI59
aI62
aI103
aI61
aI64
aI47
aI61
asba(iphrase
Phrase
p233
(dp234
g5
g6
sg7
(lp235
F0.25
aF0.25
aF0.5
aI2
aF0.5
aF0.25
aF0.5
aF0.25
aI1
aF0.5
aF0.25
aF0.5
aF0.25
aI1
aF0.25
aF0.5
aF0.25
aF0.5
aF0.5
aF0.75
aF0.5
aF0.25
aF0.75
aI1
aF0.25
aF0.25
aI2
aF0.25
asg9
g10
sg11
(lp236
I54
aI57
aI45
aI62
aI110
aI66
aI54
aI60
aI60
aI55
aI64
aI45
aI63
aI64
aI45
aI52
aI46
aI60
aI60
aI62
aI54
aI46
aI45
aI53
aI59
aI66
aI-1
aI58
asba(iphrase
Phrase
p237
(dp238
g5
g6
sg7
(lp239
F0.5
aI1
aI2
aI2
aI1
aI2
aF0.5
aF0.25
aF1.0
aF0.5
aF0.25
aI1
aI1
aF0.75
aI2
aF0.25
aI1
aF0.75
aF0.5
aF0.25
aF0.25
aF0.5
aF0.5
aI1
aI1
aF0.5
aF0.25
aF0.25
asg9
g10
sg11
(lp240
I52
aI57
aI4
aI62
aI81
aI66
aI54
aI66
aI59
aI62
aI67
aI63
aI62
aI4
aI48
aI45
aI60
aI66
aI74
aI54
aI-1
aI55
aI59
aI62
aI100
aI64
aI47
aI61
asba(iphrase
Phrase
p241
(dp242
g5
g6
sg7
(lp243
F0.25
aF0.25
aF0.25
aF0.5
aF0.25
aF0.5
aI2
aF0.25
aF0.25
aF0.5
aF0.75
aF0.5
aF0.5
aF0.5
aF0.25
aF0.25
aF0.25
aF0.75
aF0.25
aF0.25
aF0.25
aI2
aI1
aF0.5
asg9
g10
sg11
(lp244
I48
aI54
aI45
aI62
aI66
aI54
aI59
aI67
aI66
aI48
aI63
aI59
aI54
aI48
aI60
aI66
aI45
aI47
aI55
aI64
aI64
aI66
aI47
aI64
asba(iphrase
Phrase
p245
(dp246
g5
g6
sg7
(lp247
F0.25
aI1
aF0.5
aI2
aI2
aI1
aF0.5
aI1
aF0.75
aF0.5
aI1
aI2
aF0.25
aF0.25
aF0.25
aF0.25
aI1
aF0.25
aF0.5
aF0.25
aI1
aF0.25
aI1
aI1
aF0.5
aF0.25
aF0.25
aF0.25
aF0.25
aF0.5
aF0.5
aF0.5
aI1
aF0.25
asg9
g10
sg11
(lp248
I54
aI57
aI1
aI98
aI62
aI85
aI88
aI64
aI66
aI59
aI86
aI62
aI62
aI64
aI57
aI42
aI63
aI64
aI-1
aI50
aI48
aI45
aI60
aI62
aI74
aI54
aI-1
aI59
aI62
aI110
aI108
aI62
aI42
aI61
asba(iphrase
Phrase
p249
(dp250
g5
g6
sg7
(lp251
F0.5
aI1
aF0.5
aI2
aI1
aF0.25
aI1
aF0.75
aI1
aI2
aF0.25
aF0.25
aF0.25
aI1
aF0.25
aF0.5
aF0.5
aI1
aI1
aI1
aF0.5
aI2
aF0.25
aI1
aF0.25
aF0.25
aF0.5
aF0.5
aF0.5
aI2
aF0.25
asg9
g10
sg11
(lp252
I54
aI57
aI1
aI98
aI62
aI85
aI64
aI66
aI86
aI62
aI67
aI59
aI44
aI63
aI64
aI-1
aI50
aI48
aI60
aI66
aI74
aI50
aI-1
aI55
aI59
aI62
aI110
aI108
aI64
aI61
aI54
asba(iphrase
Phrase
p253
(dp254
g5
g6
sg7
(lp255
F0.25
aF0.25
aF0.5
aF0.25
aF0.5
aI1
aI1
aF0.25
aI2
aF1.0
aF0.5
aF0.5
aI2
aI2
aI2
aI1
aI1
aF0.25
aI1
aF0.5
aI2
aF0.25
aF0.25
aF0.25
asg9
g10
sg11
(lp256
I54
aI57
aI-1
aI62
aI66
aI65
aI66
aI57
aI107
aI55
aI72
aI69
aI-1
aI61
aI47
aI48
aI45
aI57
aI66
aI95
aI54
aI55
aI-1
aI60
asba(iphrase
Phrase
p257
(dp258
g5
g6
sg7
(lp259
I1
aF0.25
aF0.5
aF0.25
aF0.5
aF0.25
aI1
aF0.5
aF1.0
aF0.5
aF0.5
aF0.5
aI2
aF0.75
aF0.25
aI2
aI1
aF0.25
aF0.5
aF0.5
aF0.25
aI1
aF0.25
asg9
g10
sg11
(lp260
I52
aI48
aI48
aI77
aI62
aI62
aI66
aI57
aI60
aI79
aI63
aI69
aI41
aI60
aI61
aI47
aI54
aI41
aI66
aI52
aI59
aI-1
aI60
asba(iphrase
Phrase
p261
(dp262
g5
g6
sg7
(lp263
F0.5
aF0.25
aF0.5
aI1
aI1
aF0.25
aI1
aF0.75
aI1
aI2
aF0.25
aF0.25
aF0.5
aI1
aF0.25
aF0.5
aF0.5
aI1
aF0.5
aI1
aI1
aF0.5
aI2
aF0.25
aI1
aI1
aI2
aF0.5
aF0.5
aF0.5
aI1
aI2
aF0.5
asg9
g10
sg11
(lp264
I54
aI57
aI1
aI98
aI62
aI85
aI64
aI66
aI86
aI62
aI67
aI62
aI44
aI63
aI64
aI-1
aI50
aI48
aI45
aI60
aI66
aI74
aI54
aI-1
aI55
aI59
aI62
aI110
aI108
aI64
aI47
aI61
aI62
asba(iphrase
Phrase
p265
(dp266
g5
g6
sg7
(lp267
I1
aF0.5
aF0.25
aF0.5
aI1
aF0.25
aF0.25
aI2
aF0.25
aI1
aF0.25
aF0.5
aF0.5
aF0.5
aI1
aF0.25
aF0.5
aI1
aI1
aF0.5
aF0.5
aF0.5
aF0.25
asg9
g10
sg11
(lp268
I54
aI52
aI45
aI62
aI60
aI47
aI57
aI59
aI60
aI65
aI47
aI60
aI4
aI54
aI84
aI45
aI66
aI108
aI45
aI57
aI60
aI-1
aI64
asba(iphrase
Phrase
p269
(dp270
g5
g6
sg7
(lp271
F0.25
aF0.25
aI1
aI1
aF0.25
aI1
aF0.25
aI2
aI2
aF0.5
aF0.25
aI2
aF0.75
aI1
aF0.5
aI1
aF0.25
aF0.25
aF0.5
aF0.75
aF0.25
aF0.25
aI2
aF0.25
aF0.5
asg9
g10
sg11
(lp272
I48
aI54
aI45
aI48
aI62
aI66
aI54
aI62
aI57
aI67
aI66
aI-1
aI63
aI64
aI54
aI48
aI57
aI66
aI45
aI-1
aI55
aI64
aI66
aI47
aI59
asba(iphrase
Phrase
p273
(dp274
g5
g6
sg7
(lp275
I1
aF0.25
aF0.5
aI2
aI1
aF0.75
aF0.5
aI2
aF0.25
aF0.25
aF0.25
aI1
aF0.25
aF0.75
aF0.25
aI1
aI1
aF0.5
aI1
aI1
aF0.75
aI1
aF0.25
aF0.5
aI1
aI2
aI1
aF0.25
asg9
g10
sg11
(lp276
I54
aI55
aI42
aI59
aI66
aI66
aI59
aI62
aI67
aI62
aI47
aI64
aI64
aI-1
aI98
aI48
aI60
aI74
aI54
aI38
aI42
aI55
aI59
aI62
aI110
aI64
aI47
aI61
asba(iphrase
Phrase
p277
(dp278
g5
g6
sg7
(lp279
I2
aI1
aF0.5
aF0.25
aF0.5
aF1.0
aI1
aI1
aF0.25
aI1
aF0.5
aI1
aF0.5
aF0.5
aF0.25
aF0.25
aF0.5
aF0.5
aI1
aF0.5
aI1
aF0.25
aF0.25
aI1
aF0.25
aF0.25
asg9
g10
sg11
(lp280
I54
aI-1
aI62
aI58
aI50
aI60
aI66
aI57
aI59
aI67
aI89
aI54
aI55
aI-1
aI54
aI45
aI60
aI66
aI108
aI54
aI45
aI55
aI59
aI60
aI47
aI64
asba(iphrase
Phrase
p281
(dp282
g5
g6
sg7
(lp283
F0.25
aF0.25
aF0.25
aI1
aI2
aI1
aF0.75
aF0.5
aI2
aF0.25
aF0.25
aF0.5
aI2
aF0.25
aF0.5
aI2
aF0.25
aF0.25
aF0.25
aF0.5
aF0.25
aF0.25
aI1
aI2
aF0.25
aI2
aI1
aF0.5
aF0.5
aF0.5
asg9
g10
sg11
(lp284
I48
aI57
aI1
aI98
aI62
aI66
aI64
aI59
aI62
aI67
aI62
aI43
aI63
aI62
aI-1
aI48
aI85
aI45
aI60
aI71
aI54
aI-1
aI54
aI59
aI62
aI107
aI108
aI64
aI47
aI95
asba(iphrase
Phrase
p285
(dp286
g5
g6
sg7
(lp287
F0.25
aF0.25
aF0.5
aI2
aI1
aF0.25
aI1
aF0.75
aF0.5
aI1
aI2
aI1
aF0.25
aF0.25
aI1
aF0.25
aF0.25
aF0.5
aF0.5
aI1
aF0.25
aI1
aF0.25
aF0.5
aI2
aF0.25
aI1
aF0.25
aF0.25
aF0.5
aI1
aI1
aF0.25
asg9
g10
sg11
(lp288
I54
aI57
aI42
aI98
aI62
aI85
aI64
aI66
aI59
aI86
aI62
aI64
aI57
aI43
aI63
aI64
aI73
aI-1
aI50
aI48
aI45
aI60
aI66
aI74
aI54
aI43
aI55
aI59
aI62
aI110
aI108
aI47
aI61
asba(iphrase
Phrase
p289
(dp290
g5
g6
sg7
(lp291
I1
aF0.25
aF0.5
aF0.25
aF0.5
aF0.25
aF0.5
aF0.5
aF1.0
aI1
aF0.5
aF0.5
aI2
aF0.75
aF0.25
aF0.25
aI2
aI1
aF0.25
aF0.5
aF0.5
aF0.25
aI1
aF0.25
asg9
g10
sg11
(lp292
I52
aI48
aI45
aI77
aI62
aI62
aI66
aI55
aI60
aI79
aI63
aI69
aI41
aI60
aI58
aI61
aI47
aI54
aI38
aI66
aI52
aI59
aI-1
aI60
asba(iphrase
Phrase
p293
(dp294
g5
g6
sg7
(lp295
F0.25
aF0.25
aI1
aI2
aF0.5
aF0.25
aF0.5
aF0.75
aI2
aF0.25
aF0.25
aF0.25
aF0.25
aF0.25
aI2
aI2
aF0.25
aI1
aF0.25
aF0.75
aI2
aF0.25
aF0.5
aF0.5
aF0.5
asg9
g10
sg11
(lp296
I59
aI54
aI43
aI-1
aI60
aI66
aI53
aI66
aI59
aI62
aI64
aI66
aI45
aI63
aI51
aI112
aI60
aI66
aI54
aI2
aI59
aI66
aI98
aI45
aI64
asba(iphrase
Phrase
p297
(dp298
g5
g6
sg7
(lp299
I2
aF0.5
aF0.25
aI1
aI2
aF0.25
aI2
aF0.5
aF0.75
aF0.5
aI2
aI2
aF0.25
aI2
aF0.75
aF0.25
aF0.5
aF0.5
aI1
aF0.5
aF0.5
aI1
aF0.75
aF0.5
aF0.25
aI2
aF0.5
aF0.25
asg9
g10
sg11
(lp300
I52
aI54
aI54
aI45
aI48
aI62
aI66
aI54
aI66
aI79
aI59
aI67
aI66
aI45
aI63
aI59
aI54
aI48
aI60
aI93
aI66
aI54
aI-1
aI55
aI59
aI66
aI47
aI64
asba(iphrase
Phrase
p301
(dp302
g5
g6
sg7
(lp303
F0.25
aF0.25
aF0.25
aI2
aF0.5
aF0.25
aF0.5
aI2
aF0.5
aI1
aI2
aF0.5
aI1
aF0.5
aF0.5
aI1
aF0.5
aF0.25
aF0.5
aF0.25
aF0.25
aF0.25
aI2
aI2
aF0.5
asg9
g10
sg11
(lp304
I48
aI54
aI45
aI45
aI62
aI66
aI54
aI59
aI67
aI66
aI47
aI63
aI62
aI54
aI48
aI60
aI66
aI45
aI-1
aI55
aI64
aI64
aI66
aI48
aI61
asba(iphrase
Phrase
p305
(dp306
g5
g6
sg7
(lp307
I1
aI1
aF0.25
aF0.5
aI1
aF0.25
aF0.25
aI2
aF0.25
aI2
aF0.25
aF0.5
aF0.5
aI1
aI1
aF0.25
aF0.5
aI1
aI1
aF0.5
aF0.5
aF0.5
aF0.25
asg9
g10
sg11
(lp308
I54
aI52
aI45
aI60
aI60
aI47
aI55
aI54
aI60
aI65
aI45
aI60
aI4
aI54
aI84
aI45
aI66
aI108
aI45
aI53
aI60
aI41
aI64
asba(iphrase
Phrase
p309
(dp310
g5
g6
sg7
(lp311
F0.25
aI2
aF0.25
aF0.5
aF0.5
aF0.25
aF0.5
aI1
aI1
aI1
aF0.5
aF0.25
aF0.25
aF0.75
aF0.25
aI2
aF0.5
aF0.25
aF0.5
aF0.75
aF0.25
aF0.25
aF0.75
aI1
aF0.25
aF0.25
aF0.5
aF0.25
asg9
g10
sg11
(lp312
I54
aI4
aI-1
aI62
aI105
aI64
aI43
aI60
aI60
aI95
aI52
aI67
aI45
aI63
aI64
aI47
aI52
aI47
aI60
aI62
aI54
aI43
aI-1
aI55
aI59
aI66
aI-1
aI64
asba(iphrase
Phrase
p313
(dp314
g5
g6
sg7
(lp315
F0.25
aF0.25
aF0.5
aF0.25
aF0.5
aF0.5
aF0.75
aF0.25
aI2
aF0.25
aF0.25
aI1
aF0.25
aI2
aF0.75
aF0.25
aI1
aF0.5
aI1
aF0.25
aF0.5
aF0.5
aF0.25
aF0.25
aF0.25
aF0.25
aF0.25
asg9
g10
sg11
(lp316
I54
aI57
aI-1
aI62
aI66
aI52
aI66
aI57
aI60
aI62
aI69
aI98
aI66
aI-1
aI60
aI60
aI-1
aI50
aI50
aI45
aI60
aI66
aI54
aI59
aI66
aI-1
aI68
asba(iphrase
Phrase
p317
(dp318
g5
g6
sg7
(lp319
I2
aI1
aF0.25
aI1
aI1
aF0.25
aF0.5
aF0.5
aF0.5
aF0.75
aF1.0
aF0.5
aI1
aF0.25
aF0.25
aF0.25
aF0.75
aI1
aF0.5
aF0.5
aF0.25
aI1
aF0.25
aF0.75
aF0.5
aF0.25
aF0.25
aF0.5
aF0.25
aI1
aF0.5
asg9
g10
sg11
(lp320
I59
aI86
aI54
aI43
aI-1
aI58
aI61
aI66
aI53
aI66
aI59
aI62
aI112
aI67
aI66
aI-1
aI59
aI64
aI52
aI48
aI60
aI66
aI54
aI-1
aI55
aI59
aI66
aI98
aI45
aI105
aI64
asba(iphrase
Phrase
p321
(dp322
g5
g6
sg7
(lp323
F0.25
aF0.25
aF0.5
aF0.5
aF0.25
aF0.5
aF1.0
aF0.5
aF0.25
aI1
aF0.75
aI2
aI1
aF0.75
aI2
aI2
aF0.25
aF0.5
aF0.75
aF0.5
aF0.25
aI2
aF0.5
aF0.5
aI1
aF0.25
aF0.25
aF0.25
aF0.25
asg9
g10
sg11
(lp324
I54
aI57
aI-1
aI63
aI67
aI54
aI60
aI57
aI67
aI45
aI63
aI112
aI64
aI45
aI105
aI54
aI45
aI55
aI60
aI54
aI43
aI-1
aI107
aI108
aI55
aI59
aI64
aI-1
aI59
asba(iphrase
Phrase
p325
(dp326
g5
g6
sg7
(lp327
F0.25
aF0.25
aF0.5
aI2
aI2
aF0.5
aI1
aF0.75
aI1
aF0.5
aI1
aI2
aF0.25
aF0.25
aF0.5
aF0.25
aI2
aF0.25
aF0.5
aI1
aF0.25
aF0.25
aI1
aF0.5
aI2
aF0.25
aF0.25
aF0.5
aI2
aI1
aF0.5
aI1
asg9
g10
sg11
(lp328
I54
aI57
aI42
aI98
aI62
aI85
aI64
aI66
aI59
aI93
aI82
aI62
aI57
aI59
aI57
aI43
aI59
aI64
aI-1
aI50
aI48
aI42
aI60
aI74
aI54
aI42
aI59
aI62
aI111
aI103
aI62
aI47
asba(iphrase
Phrase
p329
(dp330
g5
g6
sg7
(lp331
F0.5
aI2
aF0.5
aI1
aI2
aI1
aI1
aF0.75
aI1
aI2
aF0.25
aF0.25
aF0.25
aF0.5
aF0.25
aF0.5
aF0.5
aI1
aI1
aI1
aF0.5
aI1
aI1
aI1
aF0.25
aF0.25
aF0.5
aF0.5
aF0.5
aI2
aF0.25
asg9
g10
sg11
(lp332
I54
aI57
aI1
aI100
aI98
aI62
aI64
aI66
aI86
aI62
aI67
aI59
aI44
aI63
aI64
aI-1
aI50
aI48
aI60
aI66
aI74
aI50
aI-1
aI54
aI59
aI62
aI107
aI108
aI64
aI61
aI54
asba(iphrase
Phrase
p333
(dp334
g5
g6
sg7
(lp335
F0.25
aI1
aF0.5
aI2
aI2
aF0.5
aF0.25
aF0.75
aI1
aI1
aI1
aF0.25
aI2
aF0.25
aF0.25
aI2
aF0.25
aF0.5
aF0.5
aI1
aF0.25
aF0.5
aI2
aF0.25
aF0.25
aF0.25
aF0.5
aI1
aI1
asg9
g10
sg11
(lp336
I54
aI57
aI1
aI98
aI59
aI85
aI64
aI66
aI59
aI82
aI62
aI57
aI54
aI57
aI43
aI59
aI64
aI-1
aI50
aI48
aI42
aI74
aI54
aI-1
aI59
aI62
aI111
aI103
aI47
asba(iphrase
Phrase
p337
(dp338
g5
g6
sg7
(lp339
F0.5
aF0.25
aF0.5
aI2
aI1
aI1
aF0.25
aI1
aF0.75
aI1
aI2
aF0.25
aF0.25
aF0.5
aI1
aF0.5
aF0.5
aI1
aF0.5
aI1
aI1
aF0.5
aI2
aF0.25
aI1
aI2
aF0.5
aF0.5
aF0.5
aI1
aF0.25
aF0.5
asg9
g10
sg11
(lp340
I54
aI54
aI1
aI98
aI66
aI62
aI85
aI64
aI66
aI86
aI62
aI67
aI62
aI44
aI63
aI-1
aI50
aI48
aI45
aI60
aI62
aI74
aI49
aI-1
aI55
aI63
aI110
aI108
aI64
aI47
aI61
aI61
asba(iphrase
Phrase
p341
(dp342
g5
g6
sg7
(lp343
F0.25
aF0.25
aF0.5
aI2
aI1
aF0.75
aF1.0
aI2
aF0.25
aF0.25
aF0.25
aI1
aF0.25
aF0.75
aF0.25
aI1
aI1
aI2
aF0.5
aF0.5
aF0.25
aI2
aI1
aI1
aI1
aF0.5
aI1
aF0.25
asg9
g10
sg11
(lp344
I54
aI57
aI1
aI62
aI62
aI61
aI59
aI62
aI67
aI62
aI47
aI63
aI62
aI-1
aI46
aI60
aI65
aI66
aI74
aI54
aI-1
aI55
aI54
aI103
aI108
aI64
aI42
aI61
asba(iphrase
Phrase
p345
(dp346
g5
g6
sg7
(lp347
F0.25
aF0.25
aF0.5
aI2
aF0.5
aF0.5
aF0.5
aF0.25
aI1
aI1
aI2
aF0.25
aF0.25
aF0.25
aF0.25
aI2
aF0.25
aI1
aI1
aI1
aF0.25
aI1
aF0.5
aI2
aF0.25
aF0.5
aF0.25
aI2
aF0.5
aI1
aF0.5
aF0.25
aI1
asg9
g10
sg11
(lp348
I54
aI57
aI1
aI98
aI62
aI85
aI64
aI66
aI59
aI82
aI62
aI57
aI59
aI57
aI43
aI59
aI64
aI-1
aI50
aI48
aI42
aI60
aI74
aI54
aI-1
aI59
aI62
aI103
aI111
aI103
aI62
aI62
aI42
asba(iphrase
Phrase
p349
(dp350
g5
g6
sg7
(lp351
F0.25
aF0.25
aI1
aI2
aI1
aF0.5
aF0.5
aF0.75
aI2
aF0.5
aF0.25
aI2
aI1
aF0.5
aF0.5
aF0.25
aF0.25
aF0.5
aF0.25
aF0.25
aF0.25
aF0.25
aF0.75
aF0.5
aF0.25
aI2
aF0.5
aF0.25
asg9
g10
sg11
(lp352
I54
aI54
aI45
aI48
aI62
aI62
aI54
aI66
aI59
aI64
aI60
aI-1
aI95
aI105
aI63
aI64
aI54
aI45
aI63
aI60
aI64
aI54
aI-1
aI55
aI55
aI64
aI47
aI59
asba(iphrase
Phrase
p353
(dp354
g5
g6
sg7
(lp355
F0.25
aI1
aF0.5
aI2
aI2
aF0.25
aI1
aF0.75
aF0.5
aI1
aI2
aF0.25
aF0.25
aF0.25
aI1
aF0.5
aF0.25
aF0.5
aF0.5
aI1
aF0.25
aI1
aI1
aF0.5
aI2
aI1
aF0.5
aF0.25
aF0.25
aF0.5
aI1
aF0.5
aI1
aF0.25
asg9
g10
sg11
(lp356
I54
aI57
aI1
aI98
aI62
aI85
aI64
aI66
aI59
aI86
aI62
aI67
aI62
aI43
aI63
aI64
aI64
aI-1
aI50
aI48
aI45
aI59
aI61
aI74
aI54
aI-1
aI55
aI59
aI62
aI110
aI108
aI59
aI47
aI61
asba(iphrase
Phrase
p357
(dp358
g5
g6
sg7
(lp359
F0.5
aI1
aF0.5
aI2
aI1
aF0.5
aF0.25
aF1.0
aI2
aF0.25
aI2
aF0.25
aI1
aI1
aF0.75
aI2
aF0.5
aF0.25
aF0.5
aF0.75
aF0.5
aF0.5
aF0.25
aF0.25
aF0.25
aI1
aF0.5
aF0.25
aF0.5
aF0.5
asg9
g10
sg11
(lp360
I52
aI57
aI1
aI62
aI66
aI54
aI66
aI57
aI62
aI67
aI62
aI47
aI66
aI62
aI44
aI48
aI54
aI45
aI60
aI66
aI74
aI-1
aI55
aI59
aI62
aI107
aI61
aI47
aI66
aI61
asba(iphrase
Phrase
p361
(dp362
g5
g6
sg7
(lp363
F0.5
aF0.25
aF0.5
aI2
aI2
aF0.25
aI1
aF0.75
aF0.5
aI1
aI2
aF0.25
aF0.25
aF0.25
aI1
aF0.25
aF0.5
aF0.5
aI1
aF0.25
aI1
aI1
aF0.5
aI2
aI2
aI1
aF0.25
aI2
aF0.5
aI1
aF0.5
aI1
aF0.25
asg9
g10
sg11
(lp364
I54
aI57
aI1
aI98
aI62
aI85
aI64
aI66
aI59
aI86
aI62
aI66
aI62
aI43
aI63
aI59
aI-1
aI45
aI48
aI45
aI60
aI66
aI74
aI52
aI-1
aI55
aI59
aI62
aI110
aI107
aI64
aI47
aI61
asba(iphrase
Phrase
p365
(dp366
g5
g6
sg7
(lp367
F0.25
aI1
aI1
aF0.5
aI2
aI1
aF0.5
aI1
aF0.75
aF0.5
aI1
aI2
aF0.25
aF0.25
aF0.25
aF0.25
aI1
aF0.25
aF0.5
aF0.25
aI1
aI1
aI1
aF0.5
aF0.25
aF0.25
aF0.25
aF0.25
aF0.5
aF0.5
aF0.5
aI1
aF0.25
asg9
g10
sg11
(lp368
I54
aI57
aI1
aI98
aI62
aI85
aI88
aI62
aI66
aI59
aI85
aI62
aI57
aI64
aI57
aI42
aI63
aI64
aI-1
aI50
aI48
aI45
aI62
aI74
aI54
aI-1
aI59
aI62
aI103
aI108
aI62
aI42
aI61
asba(iphrase
Phrase
p369
(dp370
g5
g6
sg7
(lp371
F0.25
aF0.25
aI1
aI2
aI1
aF0.25
aF0.5
aF0.75
aF0.5
aF0.25
aI2
aF0.25
aF0.5
aF0.75
aF0.25
aF0.5
aI1
aI1
aF0.25
aF0.25
aI1
aF0.5
aF0.25
aF0.25
aI2
aI2
aF0.5
asg9
g10
sg11
(lp372
I54
aI54
aI45
aI48
aI62
aI66
aI54
aI66
aI64
aI66
aI-1
aI100
aI105
aI63
aI64
aI54
aI45
aI55
aI64
aI54
aI-1
aI55
aI55
aI69
aI64
aI47
aI59
asba(iphrase
Phrase
p373
(dp374
g5
g6
sg7
(lp375
F0.5
aI1
aF0.5
aI2
aI1
aF0.25
aF0.25
aF1.0
aI2
aF0.25
aI2
aF0.25
aI1
aI1
aI2
aF0.25
aF0.5
aF0.75
aF0.5
aF0.25
aF0.25
aF0.25
aF0.25
aF0.5
aF0.25
aF0.5
asg9
g10
sg11
(lp376
I52
aI57
aI1
aI62
aI64
aI54
aI63
aI57
aI62
aI67
aI62
aI47
aI59
aI62
aI48
aI40
aI60
aI66
aI74
aI-1
aI52
aI59
aI62
aI64
aI47
aI61
asba(iphrase
Phrase
p377
(dp378
g5
g6
sg7
(lp379
F0.25
aF0.25
aI1
aF0.25
aF0.25
aF0.5
aF0.5
aF0.25
aI2
aF0.5
aF0.5
aF0.5
aF0.25
aF0.75
aF0.25
aI2
aI2
aF0.25
aI2
aI1
aF0.5
aF0.25
aI1
asg9
g10
sg11
(lp380
I48
aI52
aI47
aI57
aI66
aI66
aI66
aI57
aI60
aI61
aI62
aI69
aI-1
aI57
aI64
aI47
aI54
aI47
aI55
aI66
aI54
aI-1
aI64
asba(iphrase
Phrase
p381
(dp382
g5
g6
sg7
(lp383
F0.25
aF0.25
aF0.5
aI2
aI1
aF0.25
aF0.5
aF0.25
aI1
aF0.5
aF0.25
aF0.5
aF0.25
aI1
aF0.25
aF0.5
aF0.25
aF0.5
aF0.5
aF0.75
aF0.5
aF0.25
aF0.75
aI1
aF0.5
aI2
aF0.25
aI2
aF0.25
asg9
g10
sg11
(lp384
I54
aI57
aI41
aI62
aI110
aI66
aI54
aI60
aI60
aI55
aI64
aI45
aI63
aI64
aI45
aI52
aI46
aI60
aI60
aI60
aI54
aI46
aI45
aI53
aI59
aI66
aI66
aI47
aI58
asba(iphrase
Phrase
p385
(dp386
g5
g6
sg7
(lp387
F0.25
aF0.5
aI2
aI2
aF0.5
aI1
aI1
aI1
aI1
aF0.25
aI1
aF0.25
aF0.25
aF0.5
aI2
aF0.25
aF0.5
aI1
aI1
aF0.5
aF0.5
aF0.5
aI2
aF0.25
aF0.25
aF0.25
aF0.5
aI1
aF0.5
aI1
asg9
g10
sg11
(lp388
I57
aI1
aI98
aI62
aI85
aI64
aI66
aI59
aI82
aI62
aI57
aI59
aI57
aI43
aI59
aI64
aI-1
aI50
aI48
aI42
aI57
aI74
aI54
aI-1
aI58
aI62
aI111
aI103
aI62
aI47
asba(iphrase
Phrase
p389
(dp390
g5
g6
sg7
(lp391
F0.25
aF0.25
aF0.5
aI2
aF0.5
aI1
aF0.5
aF0.5
aF0.25
aF0.25
aF0.25
aI1
aF0.25
aF0.5
aI2
aI1
aF0.5
aF0.75
aF0.25
aI2
aF0.75
aI1
aF0.25
aF0.25
aI2
aF0.25
asg9
g10
sg11
(lp392
I54
aI57
aI48
aI62
aI110
aI66
aI54
aI57
aI67
aI45
aI63
aI64
aI45
aI52
aI47
aI60
aI60
aI62
aI54
aI43
aI45
aI55
aI59
aI66
aI-1
aI58
asba(iphrase
Phrase
p393
(dp394
g5
g6
sg7
(lp395
F0.25
aF0.25
aF0.5
aF0.5
aF0.25
aF0.5
aF0.5
aF1.0
aI2
aF0.5
aI2
aF0.75
aF0.25
aI2
aI2
aF0.5
aF0.25
aF0.25
aF0.5
aF0.25
aF0.25
aI1
aF0.25
asg9
g10
sg11
(lp396
I54
aI54
aI48
aI59
aI59
aI66
aI57
aI60
aI62
aI69
aI47
aI60
aI61
aI47
aI54
aI50
aI45
aI57
aI66
aI52
aI59
aI-1
aI60
asba(iphrase
Phrase
p397
(dp398
g5
g6
sg7
(lp399
F0.25
aF0.25
aF0.5
aF0.5
aF0.5
aF0.5
aF0.25
aF0.25
aI2
aF0.25
aF0.25
aF0.25
aI1
aF0.75
aF0.5
aI2
aF0.5
aF0.25
aF0.5
aI2
aF0.25
aF0.25
aF0.25
aF0.25
asg9
g10
sg11
(lp400
I54
aI57
aI-1
aI62
aI66
aI52
aI64
aI57
aI60
aI69
aI102
aI66
aI-1
aI60
aI50
aI-1
aI54
aI45
aI60
aI60
aI55
aI59
aI66
aI-1
asba(iphrase
Phrase
p401
(dp402
g5
g6
sg7
(lp403
F0.25
aF0.25
aF0.25
aF0.5
aI2
aI1
aI2
aI1
aF0.75
aF0.5
aI1
aI2
aI1
aF0.25
aF0.25
aI1
aF0.25
aF0.25
aF0.5
aF0.5
aI1
aF0.25
aI1
aF0.25
aF0.5
aI2
aF0.25
aI1
aF0.5
aF0.25
aF0.5
aI1
aI1
aF0.25
asg9
g10
sg11
(lp404
I50
aI86
aI57
aI42
aI98
aI62
aI85
aI61
aI66
aI59
aI86
aI62
aI64
aI57
aI43
aI63
aI64
aI73
aI-1
aI50
aI48
aI43
aI60
aI66
aI74
aI54
aI43
aI50
aI59
aI62
aI110
aI108
aI42
aI61
asba(iphrase
Phrase
p405
(dp406
g5
g6
sg7
(lp407
F0.25
aF0.5
aI2
aI2
aF0.5
aI1
aI1
aI1
aI1
aF0.25
aI1
aF0.25
aI1
aF0.5
aI2
aF0.25
aF0.5
aI1
aI1
aF0.5
aF0.5
aF0.5
aI2
aF0.25
aF0.25
aF0.5
aF0.25
aF0.5
aF0.5
aI1
aF0.5
aI2
asg9
g10
sg11
(lp408
I57
aI1
aI98
aI62
aI85
aI62
aI66
aI59
aI82
aI62
aI57
aI59
aI57
aI44
aI59
aI64
aI42
aI50
aI48
aI42
aI55
aI74
aI54
aI-1
aI58
aI66
aI62
aI111
aI105
aI103
aI62
aI47
asba(iphrase
Phrase
p409
(dp410
g5
g6
sg7
(lp411
F0.25
aF0.25
aF0.5
aF0.5
aF0.25
aI1
aI1
aF0.5
aF0.25
aF0.25
aF0.25
aI2
aF0.25
aF0.75
aF0.5
aF0.25
aF0.25
aF0.75
aF0.25
aF0.25
aF0.5
aF0.25
aI1
aI2
aF0.25
asg9
g10
sg11
(lp412
I54
aI57
aI-1
aI62
aI61
aI66
aI60
aI60
aI60
aI64
aI-1
aI63
aI64
aI45
aI54
aI48
aI60
aI66
aI54
aI-1
aI55
aI59
aI66
aI-1
aI64
asba.